target datalayout = "e-m:e-p270:32:32-p271:32:32-p272:64:64-i64:64-i128:128-f80:128-n8:16:32:64-S128"
target triple = "x86_64-pc-linux-gnu"

%struct.AVRational = type { i32, i32 }
%struct.AVCodecContext = type { ptr, i32, i32, ptr, i32, i32, ptr, ptr, ptr, i64, i32, i32, ptr, i32, %struct.AVRational, %struct.AVRational, %struct.AVRational, i32, i32, i32, i32, i32, %struct.AVRational, i32, i32, i32, i32, i32, i32, i32, i32, i32, i32, i32, ptr, ptr, i32, float, float, float, float, float, float, float, float, float, i32, i32, i32, i32, i32, i32, i32, i32, i32, i32, i32, i32, ptr, ptr, ptr, i32, i32, i32, i32, i32, i32, i32, i32, i32, i32, %struct.AVChannelLayout, i32, i32, i32, i32, i32, i32, i32, i32, ptr, i32, i32, i32, float, float, i32, i32, i32, i32, i32, ptr, i64, i64, float, float, i32, i32, ptr, ptr, i32, i32, i32, i32, i32, ptr, ptr, ptr, ptr, i32, i32, [8 x i64], i32, i32, i32, i32, i32, i32, i32, ptr, ptr, i32, i32, i32, i32, i32, i32, i32, i32, i32, i32, ptr, ptr, i32, i32, ptr, ptr, ptr, ptr, i32, i32, i64, i32, i32, i64, ptr, i64, ptr, i32, ptr, i32 }
%struct.AVChannelLayout = type { i32, i32, %union.anon, ptr }
%union.anon = type { i64 }
%struct.AVCodecInternal = type { i32, i32, i32, ptr, ptr, ptr, ptr, ptr, ptr, ptr, i32, ptr, ptr, ptr, i32, i32, ptr, i32, ptr, ptr, i32, i32 }
%struct.AVHWAccel = type { ptr, i32, i32, i32, i32 }
%struct.FFHWAccel = type { %struct.AVHWAccel, ptr, ptr, ptr, ptr, ptr, i32, i32, i32, ptr, ptr, ptr, ptr, ptr, ptr }

; Function Attrs: inlinehint nounwind uwtable
define internal ptr @ffhwaccel(ptr noundef %0) #7 {
  %2 = alloca ptr, align 8
  store ptr %0, ptr %2, align 8, !tbaa !200
  %3 = load ptr, ptr %2, align 8, !tbaa !200
  ret ptr %3
}

; Function Attrs: nounwind uwtable
define void @ff_hwaccel_uninit(ptr noundef %0) #0 {
  %2 = alloca ptr, align 8
  store ptr %0, ptr %2, align 8, !tbaa !4
  %3 = load ptr, ptr %2, align 8, !tbaa !4
  %4 = getelementptr inbounds nuw %struct.AVCodecContext, ptr %3, i32 0, i32 105
  %5 = load ptr, ptr %4, align 8, !tbaa !174
  %6 = icmp ne ptr %5, null
  br i1 %6, label %7, label %24

7:                                                ; preds = %1
  %8 = load ptr, ptr %2, align 8, !tbaa !4
  %9 = getelementptr inbounds nuw %struct.AVCodecContext, ptr %8, i32 0, i32 105
  %10 = load ptr, ptr %9, align 8, !tbaa !174
  %11 = call ptr @ffhwaccel(ptr noundef %10)
  %12 = getelementptr inbounds nuw %struct.FFHWAccel, ptr %11, i32 0, i32 10
  %13 = load ptr, ptr %12, align 8, !tbaa !199
  %14 = icmp ne ptr %13, null
  br i1 %14, label %15, label %24

15:                                               ; preds = %7
  %16 = load ptr, ptr %2, align 8, !tbaa !4
  %17 = getelementptr inbounds nuw %struct.AVCodecContext, ptr %16, i32 0, i32 105
  %18 = load ptr, ptr %17, align 8, !tbaa !174
  %19 = call ptr @ffhwaccel(ptr noundef %18)
  %20 = getelementptr inbounds nuw %struct.FFHWAccel, ptr %19, i32 0, i32 10
  %21 = load ptr, ptr %20, align 8, !tbaa !199
  %22 = load ptr, ptr %2, align 8, !tbaa !4
  %23 = call i32 %21(ptr noundef %22)
  br label %24

24:                                               ; preds = %15, %7, %1
  %25 = load ptr, ptr %2, align 8, !tbaa !4
  %26 = getelementptr inbounds nuw %struct.AVCodecContext, ptr %25, i32 0, i32 7
  %27 = load ptr, ptr %26, align 8, !tbaa !11
  %28 = getelementptr inbounds nuw %struct.AVCodecInternal, ptr %27, i32 0, i32 16
  call void @av_freep(ptr noundef %28)
  %29 = load ptr, ptr %2, align 8, !tbaa !4
  %30 = getelementptr inbounds nuw %struct.AVCodecContext, ptr %29, i32 0, i32 105
  store ptr null, ptr %30, align 8, !tbaa !174
  %31 = load ptr, ptr %2, align 8, !tbaa !4
  %32 = getelementptr inbounds nuw %struct.AVCodecContext, ptr %31, i32 0, i32 107
  call void @av_buffer_unref(ptr noundef %32)
  ret void
}