; Function Attrs: nounwind uwtable
define void @ff_hwaccel_uninit(ptr noundef %0) local_unnamed_addr #0 {
  %2 = getelementptr inbounds nuw i8, ptr %0, i64 536
  %3 = load ptr, ptr %2, align 8, !tbaa !154
  %.not = icmp eq ptr %3, null
  br i1 %.not, label %9, label %4

4:                                                ; preds = %1
  %5 = getelementptr inbounds nuw i8, ptr %3, i64 88
  %6 = load ptr, ptr %5, align 8, !tbaa !171
  %.not7 = icmp eq ptr %6, null
  br i1 %.not7, label %9, label %7

7:                                                ; preds = %4
  %8 = tail call i32 %6(ptr noundef nonnull %0) #10
  br label %9

9:                                                ; preds = %7, %4, %1
  %10 = getelementptr inbounds nuw i8, ptr %0, i64 40
  %11 = load ptr, ptr %10, align 8, !tbaa !4
  %12 = getelementptr inbounds nuw i8, ptr %11, i64 112
  tail call void @av_freep(ptr noundef nonnull %12) #10
  store ptr null, ptr %2, align 8, !tbaa !154
  %13 = getelementptr inbounds nuw i8, ptr %0, i64 552
  tail call void @av_buffer_unref(ptr noundef nonnull %13) #10
  ret void
}